; Function Attrs: nounwind uwtable
define i32 @exr_attr_set_box2i(ptr noundef %0, i32 noundef %1, ptr noundef %2, ptr noundef %3) local_unnamed_addr #0 {
  %5 = alloca ptr, align 8
  %.not = icmp eq ptr %2, null
  br i1 %.not, label %.critedge, label %6

6:                                                ; preds = %4
  %7 = tail call i32 @strcmp(ptr noundef nonnull dereferenceable(1) %2, ptr noundef nonnull dereferenceable(11) @.str.7) #7
  %8 = icmp eq i32 %7, 0
  br i1 %8, label %9, label %11

9:                                                ; preds = %6
  %10 = tail call i32 @exr_set_data_window(ptr noundef %0, i32 noundef %1, ptr noundef %3)
  br label %81

11:                                               ; preds = %6
  %12 = tail call i32 @strcmp(ptr noundef nonnull dereferenceable(1) %2, ptr noundef nonnull dereferenceable(14) @.str.9) #7
  %13 = icmp eq i32 %12, 0
  br i1 %13, label %14, label %.critedge

14:                                               ; preds = %11
  %15 = tail call i32 @exr_set_display_window(ptr noundef %0, i32 noundef %1, ptr noundef %3)
  br label %81

.critedge:                                        ; preds = %4, %11
  call void @llvm.lifetime.start.p0(i64 8, ptr nonnull %5) #6
  store ptr null, ptr %5, align 8, !tbaa !30
  %.not66 = icmp eq ptr %0, null
  br i1 %.not66, label %80, label %16

16:                                               ; preds = %.critedge
  %17 = getelementptr inbounds nuw i8, ptr %0, i64 504
  %18 = tail call i32 @pthread_mutex_lock(ptr noundef nonnull %17) #6
  %19 = icmp slt i32 %1, 0
  br i1 %19, label %23, label %20

20:                                               ; preds = %16
  %21 = getelementptr inbounds nuw i8, ptr %0, i64 196
  %22 = load i32, ptr %21, align 4, !tbaa !22
  %.not67 = icmp slt i32 %1, %22
  br i1 %.not67, label %28, label %23

23:                                               ; preds = %20, %16
  %24 = tail call i32 @pthread_mutex_unlock(ptr noundef nonnull %17) #6
  %25 = getelementptr inbounds nuw i8, ptr %0, i64 72
  %26 = load ptr, ptr %25, align 8, !tbaa !23
  %27 = tail call i32 (ptr, i32, ptr, ...) %26(ptr noundef nonnull %0, i32 noundef 4, ptr noundef nonnull @.str, i32 noundef %1) #6
  br label %80

28:                                               ; preds = %20
  %29 = load i8, ptr %0, align 8, !tbaa !3
  switch i8 %29, label %40 [
    i8 0, label %30
    i8 3, label %35
  ]

30:                                               ; preds = %28
  %31 = tail call i32 @pthread_mutex_unlock(ptr noundef nonnull %17) #6
  %32 = getelementptr inbounds nuw i8, ptr %0, i64 56
  %33 = load ptr, ptr %32, align 8, !tbaa !27
  %34 = tail call i32 %33(ptr noundef nonnull %0, i32 noundef 8) #6
  br label %80

35:                                               ; preds = %28
  %36 = tail call i32 @pthread_mutex_unlock(ptr noundef nonnull %17) #6
  %37 = getelementptr inbounds nuw i8, ptr %0, i64 56
  %38 = load ptr, ptr %37, align 8, !tbaa !27
  %39 = tail call i32 %38(ptr noundef nonnull %0, i32 noundef 21) #6
  br label %80

40:                                               ; preds = %28
  %41 = getelementptr inbounds nuw i8, ptr %0, i64 472
  %42 = load ptr, ptr %41, align 8, !tbaa !24
  %43 = zext nneg i32 %1 to i64
  %44 = getelementptr inbounds nuw ptr, ptr %42, i64 %43
  %45 = load ptr, ptr %44, align 8, !tbaa !25
  %46 = getelementptr inbounds nuw i8, ptr %45, i64 8
  %47 = call i32 @exr_attr_list_find_by_name(ptr noundef nonnull %0, ptr noundef nonnull %46, ptr noundef %2, ptr noundef nonnull %5) #6
  switch i32 %47, label %64 [
    i32 15, label %48
    i32 0, label %52
  ]

48:                                               ; preds = %40
  %49 = load i8, ptr %0, align 8, !tbaa !3
  switch i8 %49, label %50 [
    i8 1, label %66
    i8 4, label %66
  ]

50:                                               ; preds = %48
  %51 = call i32 @pthread_mutex_unlock(ptr noundef nonnull %17) #6
  br label %80

52:                                               ; preds = %40
  %53 = load ptr, ptr %5, align 8, !tbaa !30
  %54 = getelementptr inbounds nuw i8, ptr %53, i64 20
  %55 = load i32, ptr %54, align 4, !tbaa !32
  %.not68 = icmp eq i32 %55, 1
  br i1 %.not68, label %.thread, label %56

56:                                               ; preds = %52
  %57 = call i32 @pthread_mutex_unlock(ptr noundef nonnull %17) #6
  %58 = getelementptr inbounds nuw i8, ptr %0, i64 72
  %59 = load ptr, ptr %58, align 8, !tbaa !23
  %60 = load ptr, ptr %5, align 8, !tbaa !30
  %61 = getelementptr inbounds nuw i8, ptr %60, i64 8
  %62 = load ptr, ptr %61, align 8, !tbaa !34
  %63 = call i32 (ptr, i32, ptr, ...) %59(ptr noundef nonnull %0, i32 noundef 16, ptr noundef nonnull @.str.29, ptr noundef %2, ptr noundef %62) #6
  br label %80

64:                                               ; preds = %40
  %65 = call i32 @pthread_mutex_unlock(ptr noundef nonnull %17) #6
  br label %80

66:                                               ; preds = %48, %48
  %67 = call i32 @exr_attr_list_add(ptr noundef nonnull %0, ptr noundef nonnull %46, ptr noundef %2, i32 noundef 1, i32 noundef 0, ptr noundef null, ptr noundef nonnull %5) #6
  %.not71 = icmp eq ptr %3, null
  br i1 %.not71, label %68, label %73

.thread:                                          ; preds = %52
  %.not7173 = icmp eq ptr %3, null
  br i1 %.not7173, label %68, label %.thread75

68:                                               ; preds = %.thread, %66
  %69 = call i32 @pthread_mutex_unlock(ptr noundef nonnull %17) #6
  %70 = getelementptr inbounds nuw i8, ptr %0, i64 72
  %71 = load ptr, ptr %70, align 8, !tbaa !23
  %72 = call i32 (ptr, i32, ptr, ...) %71(ptr noundef nonnull %0, i32 noundef 3, ptr noundef nonnull @.str.30, ptr noundef %2, ptr noundef nonnull @.str.31) #6
  br label %80

73:                                               ; preds = %66
  %74 = icmp eq i32 %67, 0
  br i1 %74, label %..thread75_crit_edge, label %78

..thread75_crit_edge:                             ; preds = %73
  %.pre = load ptr, ptr %5, align 8, !tbaa !30
  br label %.thread75

.thread75:                                        ; preds = %..thread75_crit_edge, %.thread
  %75 = phi ptr [ %.pre, %..thread75_crit_edge ], [ %53, %.thread ]
  %76 = getelementptr inbounds nuw i8, ptr %75, i64 24
  %77 = load ptr, ptr %76, align 8, !tbaa !35
  call void @llvm.memcpy.p0.p0.i64(ptr noundef nonnull align 1 dereferenceable(16) %77, ptr noundef nonnull align 1 dereferenceable(16) %3, i64 16, i1 false), !tbaa.struct !40
  br label %78

78:                                               ; preds = %.thread75, %73
  %.0567477 = phi i32 [ 0, %.thread75 ], [ %67, %73 ]
  %79 = call i32 @pthread_mutex_unlock(ptr noundef nonnull %17) #6
  br label %80

80:                                               ; preds = %.critedge, %78, %68, %64, %56, %50, %35, %30, %23
  %.1 = phi i32 [ %27, %23 ], [ %34, %30 ], [ %39, %35 ], [ 15, %50 ], [ %.0567477, %78 ], [ %72, %68 ], [ %63, %56 ], [ %47, %64 ], [ 2, %.critedge ]
  call void @llvm.lifetime.end.p0(i64 8, ptr nonnull %5) #6
  br label %81

81:                                               ; preds = %80, %14, %9
  %.0 = phi i32 [ %10, %9 ], [ %15, %14 ], [ %.1, %80 ]
  ret i32 %.0
}